; Function Attrs: nounwind uwtable
define hidden zeroext i1 @Wayland_SetWindowOpacity(ptr noundef readnone captures(none) %0, ptr noundef readonly captures(none) %1, float noundef %2) local_unnamed_addr #0 {
  %4 = getelementptr inbounds nuw i8, ptr %1, i64 392
  %5 = load ptr, ptr %4, align 8
  %6 = getelementptr inbounds nuw i8, ptr %5, i64 176
  %7 = load ptr, ptr %6, align 8
  %.not = icmp eq ptr %7, null
  br i1 %.not, label %22, label %8

8:                                                ; preds = %3
  %9 = getelementptr inbounds nuw i8, ptr %1, i64 72
  %10 = load i64, ptr %9, align 8
  %11 = and i64 %10, 1073741824
  %.not8 = icmp eq i64 %11, 0
  %12 = fcmp oeq float %2, 1.000000e+00
  %13 = and i1 %12, %.not8
  tail call fastcc void @SetSurfaceOpaqueRegion(ptr noundef nonnull %5, i1 noundef zeroext %13)
  %14 = load ptr, ptr %6, align 8
  %15 = fpext float %2 to double
  %16 = fmul double %15, 0x41EFFFFFFFE00000
  %17 = fptoui double %16 to i32
  %18 = load ptr, ptr @WAYLAND_wl_proxy_marshal_flags, align 8
  %19 = load ptr, ptr @WAYLAND_wl_proxy_get_version, align 8
  %20 = tail call i32 %19(ptr noundef %14) #15
  %21 = tail call ptr (ptr, i32, ptr, i32, i32, ...) %18(ptr noundef %14, i32 noundef 1, ptr noundef null, i32 noundef %20, i32 noundef 0, i32 noundef %17) #15
  br label %24

22:                                               ; preds = %3
  %23 = tail call zeroext i1 (ptr, ...) @SDL_SetError_REAL(ptr noundef nonnull @.str.19) #15
  br label %24

24:                                               ; preds = %22, %8
  %.0 = phi i1 [ true, %8 ], [ %23, %22 ]
  ret i1 %.0
}